; Function Attrs: mustprogress nofree norecurse nosync nounwind willreturn memory(read, inaccessiblemem: none) uwtable
define hidden noundef zeroext i1 @_ZNK3sls8bv_fixed9is_fixed1EP3app(ptr noundef nonnull readonly align 8 captures(none) dereferenceable(40) %0, ptr noundef readonly captures(address) %1) local_unnamed_addr #10 align 2 {
  %3 = getelementptr inbounds nuw i8, ptr %1, i64 4
  %4 = load i32, ptr %3, align 4
  %5 = and i32 %4, 65535
  %6 = icmp eq i32 %5, 0
  br i1 %6, label %7, label %_Z11is_uninterpPK4expr.exit.thread4

7:                                                ; preds = %2
  %8 = getelementptr inbounds nuw i8, ptr %1, i64 16
  %9 = load ptr, ptr %8, align 8, !tbaa !89
  %10 = getelementptr inbounds nuw i8, ptr %9, i64 24
  %11 = load ptr, ptr %10, align 8, !tbaa !94
  %12 = icmp eq ptr %11, null
  br i1 %12, label %"_Z6all_ofI3appZNK3sls8bv_fixed9is_fixed1EPS0_E3$_0EbRKT_RKT0_.exit", label %_Z11is_uninterpPK4expr.exit

_Z11is_uninterpPK4expr.exit:                      ; preds = %7
  %13 = load i32, ptr %11, align 8, !tbaa !98
  %14 = icmp eq i32 %13, -1
  br i1 %14, label %"_Z6all_ofI3appZNK3sls8bv_fixed9is_fixed1EPS0_E3$_0EbRKT_RKT0_.exit", label %_Z11is_uninterpPK4expr.exit.thread4

_Z11is_uninterpPK4expr.exit.thread4:              ; preds = %2, %_Z11is_uninterpPK4expr.exit
  %.ptr.i = getelementptr inbounds nuw i8, ptr %1, i64 32
  %15 = getelementptr inbounds nuw i8, ptr %1, i64 24
  %16 = load i32, ptr %15, align 8, !tbaa !104
  %17 = zext i32 %16 to i64
  %.idx.i = shl nuw nsw i64 %17, 3
  %18 = getelementptr inbounds nuw i8, ptr %1, i64 %.idx.i
  %.ptr8.i = getelementptr inbounds nuw i8, ptr %18, i64 32
  %.not1.i = icmp eq i32 %16, 0
  br i1 %.not1.i, label %"_Z6all_ofI3appZNK3sls8bv_fixed9is_fixed1EPS0_E3$_0EbRKT_RKT0_.exit", label %.lr.ph.i

.lr.ph.i:                                         ; preds = %_Z11is_uninterpPK4expr.exit.thread4
  %.val.val.i = load ptr, ptr %0, align 8, !tbaa !73
  %19 = getelementptr i8, ptr %.val.val.i, i64 512
  %.val.val.val.i = load ptr, ptr %19, align 8, !tbaa !76
  %20 = icmp eq ptr %.val.val.val.i, null
  br i1 %20, label %"_Z6all_ofI3appZNK3sls8bv_fixed9is_fixed1EPS0_E3$_0EbRKT_RKT0_.exit", label %.lr.ph.split.i

.lr.ph.split.i:                                   ; preds = %.lr.ph.i
  %21 = getelementptr inbounds i8, ptr %.val.val.val.i, i64 -4
  %22 = load i32, ptr %21, align 4, !tbaa !68
  br label %_ZNK6vectorIbLb0EjE3getEjRKb.exit.i.i.i

23:                                               ; preds = %"_ZZNK3sls8bv_fixed9is_fixed1EP3appENK3$_0clEP4expr.exit.i"
  %24 = getelementptr inbounds nuw i8, ptr %.0132.i, i64 8
  %.not.i = icmp eq ptr %24, %.ptr8.i
  br i1 %.not.i, label %"_Z6all_ofI3appZNK3sls8bv_fixed9is_fixed1EPS0_E3$_0EbRKT_RKT0_.exit", label %_ZNK6vectorIbLb0EjE3getEjRKb.exit.i.i.i

_ZNK6vectorIbLb0EjE3getEjRKb.exit.i.i.i:          ; preds = %23, %.lr.ph.split.i
  %.0132.i = phi ptr [ %.ptr.i, %.lr.ph.split.i ], [ %24, %23 ]
  %25 = load ptr, ptr %.0132.i, align 8, !tbaa !72
  %26 = load i32, ptr %25, align 4, !tbaa !74
  %.not.i.i.i.i = icmp ult i32 %26, %22
  br i1 %.not.i.i.i.i, label %"_ZZNK3sls8bv_fixed9is_fixed1EP3appENK3$_0clEP4expr.exit.i", label %"_Z6all_ofI3appZNK3sls8bv_fixed9is_fixed1EPS0_E3$_0EbRKT_RKT0_.exit"

"_ZZNK3sls8bv_fixed9is_fixed1EP3appENK3$_0clEP4expr.exit.i": ; preds = %_ZNK6vectorIbLb0EjE3getEjRKb.exit.i.i.i
  %27 = zext i32 %26 to i64
  %28 = getelementptr inbounds nuw i8, ptr %.val.val.val.i, i64 %27
  %.then.val.i.i.i = load i8, ptr %28, align 1, !tbaa !88, !range !105, !noundef !106
  %29 = trunc nuw i8 %.then.val.i.i.i to i1
  br i1 %29, label %23, label %"_Z6all_ofI3appZNK3sls8bv_fixed9is_fixed1EPS0_E3$_0EbRKT_RKT0_.exit"

"_Z6all_ofI3appZNK3sls8bv_fixed9is_fixed1EPS0_E3$_0EbRKT_RKT0_.exit": ; preds = %"_ZZNK3sls8bv_fixed9is_fixed1EP3appENK3$_0clEP4expr.exit.i", %_ZNK6vectorIbLb0EjE3getEjRKb.exit.i.i.i, %23, %7, %.lr.ph.i, %_Z11is_uninterpPK4expr.exit.thread4, %_Z11is_uninterpPK4expr.exit
  %.0 = phi i1 [ false, %_Z11is_uninterpPK4expr.exit ], [ true, %_Z11is_uninterpPK4expr.exit.thread4 ], [ false, %.lr.ph.i ], [ false, %7 ], [ false, %"_ZZNK3sls8bv_fixed9is_fixed1EP3appENK3$_0clEP4expr.exit.i" ], [ true, %23 ], [ false, %_ZNK6vectorIbLb0EjE3getEjRKb.exit.i.i.i ]
  ret i1 %.0
}